target datalayout = "e-m:e-p270:32:32-p271:32:32-p272:64:64-i64:64-i128:128-f80:128-n8:16:32:64-S128"
target triple = "x86_64-pc-linux-gnu"

%struct.avifArrayInternal = type { ptr, i32, i32, i32 }

; Function Attrs: nounwind uwtable
define hidden ptr @avifArrayPush(ptr noundef %0) #0 {
  %2 = alloca ptr, align 8
  %3 = alloca ptr, align 8
  %4 = alloca ptr, align 8
  %5 = alloca ptr, align 8
  %6 = alloca i64, align 8
  store ptr %0, ptr %3, align 8
  %7 = load ptr, ptr %3, align 8
  store ptr %7, ptr %4, align 8
  %8 = load ptr, ptr %4, align 8
  %9 = getelementptr inbounds nuw %struct.avifArrayInternal, ptr %8, i32 0, i32 2
  %10 = load i32, ptr %9, align 4
  %11 = load ptr, ptr %4, align 8
  %12 = getelementptr inbounds nuw %struct.avifArrayInternal, ptr %11, i32 0, i32 3
  %13 = load i32, ptr %12, align 8
  %14 = icmp eq i32 %10, %13
  br i1 %14, label %15, label %55

15:                                               ; preds = %1
  %16 = load ptr, ptr %4, align 8
  %17 = getelementptr inbounds nuw %struct.avifArrayInternal, ptr %16, i32 0, i32 0
  %18 = load ptr, ptr %17, align 8
  store ptr %18, ptr %5, align 8
  %19 = load ptr, ptr %4, align 8
  %20 = getelementptr inbounds nuw %struct.avifArrayInternal, ptr %19, i32 0, i32 1
  %21 = load i32, ptr %20, align 8
  %22 = zext i32 %21 to i64
  %23 = load ptr, ptr %4, align 8
  %24 = getelementptr inbounds nuw %struct.avifArrayInternal, ptr %23, i32 0, i32 3
  %25 = load i32, ptr %24, align 8
  %26 = zext i32 %25 to i64
  %27 = mul i64 %22, %26
  store i64 %27, ptr %6, align 8
  %28 = load i64, ptr %6, align 8
  %29 = mul i64 %28, 2
  %30 = call ptr @avifAlloc(i64 noundef %29)
  %31 = load ptr, ptr %4, align 8
  %32 = getelementptr inbounds nuw %struct.avifArrayInternal, ptr %31, i32 0, i32 0
  store ptr %30, ptr %32, align 8
  %33 = load ptr, ptr %4, align 8
  %34 = getelementptr inbounds nuw %struct.avifArrayInternal, ptr %33, i32 0, i32 0
  %35 = load ptr, ptr %34, align 8
  %36 = icmp eq ptr %35, null
  br i1 %36, label %37, label %38

37:                                               ; preds = %15
  store ptr null, ptr %2, align 8
  br label %74

38:                                               ; preds = %15
  %39 = load ptr, ptr %4, align 8
  %40 = getelementptr inbounds nuw %struct.avifArrayInternal, ptr %39, i32 0, i32 0
  %41 = load ptr, ptr %40, align 8
  %42 = load i64, ptr %6, align 8
  %43 = getelementptr inbounds i8, ptr %41, i64 %42
  %44 = load i64, ptr %6, align 8
  call void @llvm.memset.p0.i64(ptr align 1 %43, i8 0, i64 %44, i1 false)
  %45 = load ptr, ptr %4, align 8
  %46 = getelementptr inbounds nuw %struct.avifArrayInternal, ptr %45, i32 0, i32 0
  %47 = load ptr, ptr %46, align 8
  %48 = load ptr, ptr %5, align 8
  %49 = load i64, ptr %6, align 8
  call void @llvm.memcpy.p0.p0.i64(ptr align 1 %47, ptr align 1 %48, i64 %49, i1 false)
  %50 = load ptr, ptr %4, align 8
  %51 = getelementptr inbounds nuw %struct.avifArrayInternal, ptr %50, i32 0, i32 3
  %52 = load i32, ptr %51, align 8
  %53 = mul i32 %52, 2
  store i32 %53, ptr %51, align 8
  %54 = load ptr, ptr %5, align 8
  call void @avifFree(ptr noundef %54)
  br label %55

55:                                               ; preds = %38, %1
  %56 = load ptr, ptr %4, align 8
  %57 = getelementptr inbounds nuw %struct.avifArrayInternal, ptr %56, i32 0, i32 2
  %58 = load i32, ptr %57, align 4
  %59 = add i32 %58, 1
  store i32 %59, ptr %57, align 4
  %60 = load ptr, ptr %4, align 8
  %61 = getelementptr inbounds nuw %struct.avifArrayInternal, ptr %60, i32 0, i32 0
  %62 = load ptr, ptr %61, align 8
  %63 = load ptr, ptr %4, align 8
  %64 = getelementptr inbounds nuw %struct.avifArrayInternal, ptr %63, i32 0, i32 2
  %65 = load i32, ptr %64, align 4
  %66 = sub i32 %65, 1
  %67 = zext i32 %66 to i64
  %68 = load ptr, ptr %4, align 8
  %69 = getelementptr inbounds nuw %struct.avifArrayInternal, ptr %68, i32 0, i32 1
  %70 = load i32, ptr %69, align 8
  %71 = zext i32 %70 to i64
  %72 = mul i64 %67, %71
  %73 = getelementptr inbounds i8, ptr %62, i64 %72
  store ptr %73, ptr %2, align 8
  br label %74

74:                                               ; preds = %55, %37
  %75 = load ptr, ptr %2, align 8
  ret ptr %75
}