; Function Attrs: nounwind uwtable
define hidden ptr @avifArrayPush(ptr nocapture noundef %0) local_unnamed_addr #2 {
  %2 = getelementptr inbounds nuw i8, ptr %0, i64 12
  %3 = load i32, ptr %2, align 4
  %4 = getelementptr inbounds nuw i8, ptr %0, i64 16
  %5 = load i32, ptr %4, align 8
  %6 = icmp eq i32 %3, %5
  br i1 %6, label %7, label %22

7:                                                ; preds = %1
  %8 = load ptr, ptr %0, align 8
  %9 = getelementptr inbounds nuw i8, ptr %0, i64 8
  %10 = load i32, ptr %9, align 8
  %11 = zext i32 %10 to i64
  %12 = zext i32 %3 to i64
  %13 = mul nuw i64 %11, %12
  %14 = shl i64 %13, 1
  %15 = tail call ptr @avifAlloc(i64 noundef %14) #10
  store ptr %15, ptr %0, align 8
  %16 = icmp eq ptr %15, null
  br i1 %16, label %32, label %17

17:                                               ; preds = %7
  %18 = getelementptr inbounds i8, ptr %15, i64 %13
  tail call void @llvm.memset.p0.i64(ptr nonnull align 1 %18, i8 0, i64 %13, i1 false)
  %19 = load ptr, ptr %0, align 8
  tail call void @llvm.memcpy.p0.p0.i64(ptr align 1 %19, ptr align 1 %8, i64 %13, i1 false)
  %20 = load i32, ptr %4, align 8
  %21 = shl i32 %20, 1
  store i32 %21, ptr %4, align 8
  tail call void @avifFree(ptr noundef %8) #10
  %.pre = load i32, ptr %2, align 4
  br label %22

22:                                               ; preds = %17, %1
  %23 = phi i32 [ %.pre, %17 ], [ %3, %1 ]
  %24 = add i32 %23, 1
  store i32 %24, ptr %2, align 4
  %25 = load ptr, ptr %0, align 8
  %26 = zext i32 %23 to i64
  %27 = getelementptr inbounds nuw i8, ptr %0, i64 8
  %28 = load i32, ptr %27, align 8
  %29 = zext i32 %28 to i64
  %30 = mul nuw i64 %29, %26
  %31 = getelementptr inbounds i8, ptr %25, i64 %30
  br label %32

32:                                               ; preds = %7, %22
  %.0 = phi ptr [ %31, %22 ], [ null, %7 ]
  ret ptr %.0
}